target datalayout = "e-m:e-p270:32:32-p271:32:32-p272:64:64-i64:64-i128:128-f80:128-n8:16:32:64-S128"
target triple = "x86_64-pc-linux-gnu"

%"class.std::__cxx11::basic_string" = type { %"struct.std::__cxx11::basic_string<char>::_Alloc_hider", i64, %union.anon }
%"struct.std::__cxx11::basic_string<char>::_Alloc_hider" = type { ptr }
%union.anon = type { i64, [8 x i8] }
%"class.std::allocator.31" = type { i8 }
%"struct.cv::utils::logging::internal::GlobalLoggingInitStruct" = type { %"class.cv::utils::logging::LogTagManager" }
%"class.cv::utils::logging::LogTagManager" = type { %"class.std::recursive_mutex", %"class.std::unique_ptr", %"struct.cv::utils::logging::LogTagManager::NameTable", %"class.std::shared_ptr" }
%"class.std::recursive_mutex" = type { %"class.std::__recursive_mutex_base" }
%"class.std::__recursive_mutex_base" = type { %union.pthread_mutex_t }
%union.pthread_mutex_t = type { %struct.__pthread_mutex_s }
%struct.__pthread_mutex_s = type { i32, i32, i32, i32, i32, i16, i16, %struct.__pthread_internal_list }
%struct.__pthread_internal_list = type { ptr, ptr }
%"class.std::unique_ptr" = type { %"struct.std::__uniq_ptr_data" }
%"struct.std::__uniq_ptr_data" = type { %"class.std::__uniq_ptr_impl" }
%"class.std::__uniq_ptr_impl" = type { %"class.std::tuple" }
%"class.std::tuple" = type { %"struct.std::_Tuple_impl" }
%"struct.std::_Tuple_impl" = type { %"struct.std::_Head_base.1" }
%"struct.std::_Head_base.1" = type { ptr }
%"struct.cv::utils::logging::LogTagManager::NameTable" = type { %"class.std::vector", %"class.std::vector.2", %"class.std::unordered_map", %"class.std::unordered_map", %"class.std::unordered_multimap", %"class.std::unordered_multimap" }
%"class.std::vector" = type { %"struct.std::_Vector_base" }
%"struct.std::_Vector_base" = type { %"struct.std::_Vector_base<cv::utils::logging::LogTagManager::FullNameInfo, std::allocator<cv::utils::logging::LogTagManager::FullNameInfo>>::_Vector_impl" }
%"struct.std::_Vector_base<cv::utils::logging::LogTagManager::FullNameInfo, std::allocator<cv::utils::logging::LogTagManager::FullNameInfo>>::_Vector_impl" = type { %"struct.std::_Vector_base<cv::utils::logging::LogTagManager::FullNameInfo, std::allocator<cv::utils::logging::LogTagManager::FullNameInfo>>::_Vector_impl_data" }
%"struct.std::_Vector_base<cv::utils::logging::LogTagManager::FullNameInfo, std::allocator<cv::utils::logging::LogTagManager::FullNameInfo>>::_Vector_impl_data" = type { ptr, ptr, ptr }
%"class.std::vector.2" = type { %"struct.std::_Vector_base.3" }
%"struct.std::_Vector_base.3" = type { %"struct.std::_Vector_base<cv::utils::logging::LogTagManager::NamePartInfo, std::allocator<cv::utils::logging::LogTagManager::NamePartInfo>>::_Vector_impl" }
%"struct.std::_Vector_base<cv::utils::logging::LogTagManager::NamePartInfo, std::allocator<cv::utils::logging::LogTagManager::NamePartInfo>>::_Vector_impl" = type { %"struct.std::_Vector_base<cv::utils::logging::LogTagManager::NamePartInfo, std::allocator<cv::utils::logging::LogTagManager::NamePartInfo>>::_Vector_impl_data" }
%"struct.std::_Vector_base<cv::utils::logging::LogTagManager::NamePartInfo, std::allocator<cv::utils::logging::LogTagManager::NamePartInfo>>::_Vector_impl_data" = type { ptr, ptr, ptr }
%"class.std::unordered_map" = type { %"class.std::_Hashtable" }
%"class.std::_Hashtable" = type { ptr, i64, %"struct.std::__detail::_Hash_node_base", i64, %"struct.std::__detail::_Prime_rehash_policy", ptr }
%"struct.std::__detail::_Hash_node_base" = type { ptr }
%"struct.std::__detail::_Prime_rehash_policy" = type { float, i64 }
%"class.std::unordered_multimap" = type { %"class.std::_Hashtable.12" }
%"class.std::_Hashtable.12" = type { ptr, i64, %"struct.std::__detail::_Hash_node_base", i64, %"struct.std::__detail::_Prime_rehash_policy", ptr }
%"class.std::shared_ptr" = type { %"class.std::__shared_ptr" }
%"class.std::__shared_ptr" = type { ptr, %"class.std::__shared_count" }
%"class.std::__shared_count" = type { ptr }
%"struct.cv::utils::logging::LogTag" = type <{ ptr, i32, [4 x i8] }>

@_ZZN2cv5utils7logging8internalL16getLogTagManagerEvE21logTagManagerInstance = internal global ptr null, align 8
@_ZGVZN2cv5utils7logging8internalL16getLogTagManagerEvE21logTagManagerInstance = internal global i64 0, align 8

; Function Attrs: mustprogress uwtable
define internal noundef nonnull align 8 dereferenceable(336) ptr @_ZN2cv5utils7logging8internalL16getLogTagManagerEv() #4 personality ptr @__gxx_personality_v0 {
  %1 = alloca ptr, align 8
  %2 = alloca i32, align 4
  %3 = load atomic i8, ptr @_ZGVZN2cv5utils7logging8internalL16getLogTagManagerEvE21logTagManagerInstance acquire, align 8
  %4 = icmp eq i8 %3, 0
  br i1 %4, label %5, label %12, !prof !4

5:                                                ; preds = %0
  %6 = call i32 @__cxa_guard_acquire(ptr @_ZGVZN2cv5utils7logging8internalL16getLogTagManagerEvE21logTagManagerInstance) #3
  %7 = icmp ne i32 %6, 0
  br i1 %7, label %8, label %12

8:                                                ; preds = %5
  %9 = invoke noundef nonnull align 8 dereferenceable(336) ptr @_ZN2cv5utils7logging8internalL26getGlobalLoggingInitStructEv()
          to label %10 unwind label %14

10:                                               ; preds = %8
  %11 = getelementptr inbounds %"struct.cv::utils::logging::internal::GlobalLoggingInitStruct", ptr %9, i32 0, i32 0
  store ptr %11, ptr @_ZZN2cv5utils7logging8internalL16getLogTagManagerEvE21logTagManagerInstance, align 8
  call void @__cxa_guard_release(ptr @_ZGVZN2cv5utils7logging8internalL16getLogTagManagerEvE21logTagManagerInstance) #3
  br label %12

12:                                               ; preds = %10, %5, %0
  %13 = load ptr, ptr @_ZZN2cv5utils7logging8internalL16getLogTagManagerEvE21logTagManagerInstance, align 8
  ret ptr %13

14:                                               ; preds = %8
  %15 = landingpad { ptr, i32 }
          cleanup
  %16 = extractvalue { ptr, i32 } %15, 0
  store ptr %16, ptr %1, align 8
  %17 = extractvalue { ptr, i32 } %15, 1
  store i32 %17, ptr %2, align 4
  call void @__cxa_guard_abort(ptr @_ZGVZN2cv5utils7logging8internalL16getLogTagManagerEvE21logTagManagerInstance) #3
  br label %18

18:                                               ; preds = %14
  %19 = load ptr, ptr %1, align 8
  %20 = load i32, ptr %2, align 4
  %21 = insertvalue { ptr, i32 } poison, ptr %19, 0
  %22 = insertvalue { ptr, i32 } %21, i32 %20, 1
  resume { ptr, i32 } %22
}

; Function Attrs: mustprogress uwtable
define void @_ZN2cv5utils7logging14registerLogTagEPNS1_6LogTagE(ptr noundef %0) #4 personality ptr @__gxx_personality_v0 {
  %2 = alloca ptr, align 8
  %3 = alloca %"class.std::__cxx11::basic_string", align 8
  %4 = alloca %"class.std::allocator.31", align 1
  %5 = alloca ptr, align 8
  %6 = alloca i32, align 4
  store ptr %0, ptr %2, align 8
  %7 = load ptr, ptr %2, align 8
  %8 = icmp ne ptr %7, null
  br i1 %8, label %9, label %14

9:                                                ; preds = %1
  %10 = load ptr, ptr %2, align 8
  %11 = getelementptr inbounds %"struct.cv::utils::logging::LogTag", ptr %10, i32 0, i32 0
  %12 = load ptr, ptr %11, align 8
  %13 = icmp ne ptr %12, null
  br i1 %13, label %15, label %14

14:                                               ; preds = %9, %1
  br label %23

15:                                               ; preds = %9
  %16 = call noundef nonnull align 8 dereferenceable(336) ptr @_ZN2cv5utils7logging8internalL16getLogTagManagerEv()
  %17 = load ptr, ptr %2, align 8
  %18 = getelementptr inbounds %"struct.cv::utils::logging::LogTag", ptr %17, i32 0, i32 0
  %19 = load ptr, ptr %18, align 8
  call void @_ZNSaIcEC1Ev(ptr noundef nonnull align 1 dereferenceable(1) %4) #3
  invoke void @_ZNSt7__cxx1112basic_stringIcSt11char_traitsIcESaIcEEC1EPKcRKS3_(ptr noundef nonnull align 8 dereferenceable(32) %3, ptr noundef %19, ptr noundef nonnull align 1 dereferenceable(1) %4)
          to label %20 unwind label %24

20:                                               ; preds = %15
  %21 = load ptr, ptr %2, align 8
  invoke void @_ZN2cv5utils7logging13LogTagManager6assignERKNSt7__cxx1112basic_stringIcSt11char_traitsIcESaIcEEEPNS1_6LogTagE(ptr noundef nonnull align 8 dereferenceable(336) %16, ptr noundef nonnull align 8 dereferenceable(32) %3, ptr noundef %21)
          to label %22 unwind label %28

22:                                               ; preds = %20
  call void @_ZNSt7__cxx1112basic_stringIcSt11char_traitsIcESaIcEED1Ev(ptr noundef nonnull align 8 dereferenceable(32) %3) #3
  call void @_ZNSaIcED1Ev(ptr noundef nonnull align 1 dereferenceable(1) %4) #3
  br label %23

23:                                               ; preds = %22, %14
  ret void

24:                                               ; preds = %15
  %25 = landingpad { ptr, i32 }
          cleanup
  %26 = extractvalue { ptr, i32 } %25, 0
  store ptr %26, ptr %5, align 8
  %27 = extractvalue { ptr, i32 } %25, 1
  store i32 %27, ptr %6, align 4
  br label %32

28:                                               ; preds = %20
  %29 = landingpad { ptr, i32 }
          cleanup
  %30 = extractvalue { ptr, i32 } %29, 0
  store ptr %30, ptr %5, align 8
  %31 = extractvalue { ptr, i32 } %29, 1
  store i32 %31, ptr %6, align 4
  call void @_ZNSt7__cxx1112basic_stringIcSt11char_traitsIcESaIcEED1Ev(ptr noundef nonnull align 8 dereferenceable(32) %3) #3
  br label %32

32:                                               ; preds = %28, %24
  call void @_ZNSaIcED1Ev(ptr noundef nonnull align 1 dereferenceable(1) %4) #3
  br label %33

33:                                               ; preds = %32
  %34 = load ptr, ptr %5, align 8
  %35 = load i32, ptr %6, align 4
  %36 = insertvalue { ptr, i32 } poison, ptr %34, 0
  %37 = insertvalue { ptr, i32 } %36, i32 %35, 1
  resume { ptr, i32 } %37
}