; Function Attrs: mustprogress uwtable
define void @_ZN2cv5utils7logging14registerLogTagEPNS1_6LogTagE(ptr noundef %0) local_unnamed_addr #3 personality ptr @__gxx_personality_v0 {
  %2 = alloca %"class.std::__cxx11::basic_string", align 8
  %3 = alloca %"class.std::allocator.31", align 1
  %.not = icmp eq ptr %0, null
  br i1 %.not, label %20, label %4

4:                                                ; preds = %1
  %5 = load ptr, ptr %0, align 8
  %.not7 = icmp eq ptr %5, null
  br i1 %.not7, label %20, label %6

6:                                                ; preds = %4
  %7 = load atomic i8, ptr @_ZGVZN2cv5utils7logging8internalL16getLogTagManagerEvE21logTagManagerInstance acquire, align 8
  %8 = icmp eq i8 %7, 0
  br i1 %8, label %9, label %_ZN2cv5utils7logging8internalL16getLogTagManagerEv.exit, !prof !4

9:                                                ; preds = %6
  %10 = tail call i32 @__cxa_guard_acquire(ptr nonnull @_ZGVZN2cv5utils7logging8internalL16getLogTagManagerEvE21logTagManagerInstance) #8
  %.not.i = icmp eq i32 %10, 0
  br i1 %.not.i, label %_ZN2cv5utils7logging8internalL16getLogTagManagerEv.exit, label %11

11:                                               ; preds = %9
  %12 = invoke fastcc noundef nonnull align 8 dereferenceable(336) ptr @_ZN2cv5utils7logging8internalL26getGlobalLoggingInitStructEv()
          to label %13 unwind label %14

13:                                               ; preds = %11
  store ptr %12, ptr @_ZZN2cv5utils7logging8internalL16getLogTagManagerEvE21logTagManagerInstance, align 8
  tail call void @__cxa_guard_release(ptr nonnull @_ZGVZN2cv5utils7logging8internalL16getLogTagManagerEvE21logTagManagerInstance) #8
  br label %_ZN2cv5utils7logging8internalL16getLogTagManagerEv.exit

common.resume:                                    ; preds = %25, %14
  %common.resume.op = phi { ptr, i32 } [ %15, %14 ], [ %.pn, %25 ]
  resume { ptr, i32 } %common.resume.op

14:                                               ; preds = %11
  %15 = landingpad { ptr, i32 }
          cleanup
  tail call void @__cxa_guard_abort(ptr nonnull @_ZGVZN2cv5utils7logging8internalL16getLogTagManagerEvE21logTagManagerInstance) #8
  br label %common.resume

_ZN2cv5utils7logging8internalL16getLogTagManagerEv.exit: ; preds = %6, %9, %13
  %16 = load ptr, ptr @_ZZN2cv5utils7logging8internalL16getLogTagManagerEvE21logTagManagerInstance, align 8
  %17 = load ptr, ptr %0, align 8
  call void @_ZNSaIcEC1Ev(ptr noundef nonnull align 1 dereferenceable(1) %3) #8
  invoke void @_ZNSt7__cxx1112basic_stringIcSt11char_traitsIcESaIcEEC1EPKcRKS3_(ptr noundef nonnull align 8 dereferenceable(32) %2, ptr noundef %17, ptr noundef nonnull align 1 dereferenceable(1) %3)
          to label %18 unwind label %21

18:                                               ; preds = %_ZN2cv5utils7logging8internalL16getLogTagManagerEv.exit
  invoke void @_ZN2cv5utils7logging13LogTagManager6assignERKNSt7__cxx1112basic_stringIcSt11char_traitsIcESaIcEEEPNS1_6LogTagE(ptr noundef nonnull align 8 dereferenceable(336) %16, ptr noundef nonnull align 8 dereferenceable(32) %2, ptr noundef nonnull %0)
          to label %19 unwind label %23

19:                                               ; preds = %18
  call void @_ZNSt7__cxx1112basic_stringIcSt11char_traitsIcESaIcEED1Ev(ptr noundef nonnull align 8 dereferenceable(32) %2) #8
  call void @_ZNSaIcED1Ev(ptr noundef nonnull align 1 dereferenceable(1) %3) #8
  br label %20

20:                                               ; preds = %1, %4, %19
  ret void

21:                                               ; preds = %_ZN2cv5utils7logging8internalL16getLogTagManagerEv.exit
  %22 = landingpad { ptr, i32 }
          cleanup
  br label %25

23:                                               ; preds = %18
  %24 = landingpad { ptr, i32 }
          cleanup
  call void @_ZNSt7__cxx1112basic_stringIcSt11char_traitsIcESaIcEED1Ev(ptr noundef nonnull align 8 dereferenceable(32) %2) #8
  br label %25

25:                                               ; preds = %23, %21
  %.pn = phi { ptr, i32 } [ %24, %23 ], [ %22, %21 ]
  call void @_ZNSaIcED1Ev(ptr noundef nonnull align 1 dereferenceable(1) %3) #8
  br label %common.resume
}